; Function Attrs: cold nounwind optsize uwtable
define internal range(i32 -12, 1) i32 @gif_decode_init(ptr noundef %0) #0 {
  %2 = getelementptr inbounds nuw i8, ptr %0, i64 32
  %3 = load ptr, ptr %2, align 8, !tbaa !4
  %4 = getelementptr inbounds nuw i8, ptr %3, i64 2184
  store ptr %0, ptr %4, align 8, !tbaa !27
  %5 = getelementptr inbounds nuw i8, ptr %0, i64 136
  store i32 28, ptr %5, align 8, !tbaa !32
  %6 = tail call ptr @av_frame_alloc() #8
  %7 = getelementptr inbounds nuw i8, ptr %3, i64 8
  store ptr %6, ptr %7, align 8, !tbaa !33
  %.not = icmp eq ptr %6, null
  br i1 %.not, label %11, label %8

8:                                                ; preds = %1
  %9 = getelementptr inbounds nuw i8, ptr %3, i64 128
  tail call void @ff_lzw_decode_open(ptr noundef nonnull %9) #8
  %10 = load ptr, ptr %9, align 8, !tbaa !34
  %.not8 = icmp eq ptr %10, null
  %. = select i1 %.not8, i32 -12, i32 0
  br label %11

11:                                               ; preds = %8, %1
  %.0 = phi i32 [ -12, %1 ], [ %., %8 ]
  ret i32 %.0
}